target datalayout = "e-m:e-p270:32:32-p271:32:32-p272:64:64-i64:64-i128:128-f80:128-n8:16:32:64-S128"
target triple = "x86_64-pc-linux-gnu"

@_generic_superset_name = internal constant [8 x i8] c"UCS-4LE\00", align 1

; Function Attrs: nounwind uwtable
define internal i32 @_php_iconv_strlen(ptr noundef %0, ptr noundef %1, i64 noundef %2, ptr noundef %3) #0 {
  %5 = alloca i32, align 4
  %6 = alloca ptr, align 8
  %7 = alloca ptr, align 8
  %8 = alloca i64, align 8
  %9 = alloca ptr, align 8
  %10 = alloca [8 x i8], align 1
  %11 = alloca i32, align 4
  %12 = alloca ptr, align 8
  %13 = alloca ptr, align 8
  %14 = alloca i64, align 8
  %15 = alloca ptr, align 8
  %16 = alloca i64, align 8
  %17 = alloca i64, align 8
  %18 = alloca i32, align 4
  %19 = alloca i32, align 4
  store ptr %0, ptr %6, align 8, !tbaa !67
  store ptr %1, ptr %7, align 8, !tbaa !23
  store i64 %2, ptr %8, align 8, !tbaa !24
  store ptr %3, ptr %9, align 8, !tbaa !23
  call void @llvm.lifetime.start.p0(i64 8, ptr %10) #15
  call void @llvm.lifetime.start.p0(i64 4, ptr %11) #15
  store i32 0, ptr %11, align 4, !tbaa !4
  call void @llvm.lifetime.start.p0(i64 8, ptr %12) #15
  call void @llvm.lifetime.start.p0(i64 8, ptr %13) #15
  call void @llvm.lifetime.start.p0(i64 8, ptr %14) #15
  call void @llvm.lifetime.start.p0(i64 8, ptr %15) #15
  call void @llvm.lifetime.start.p0(i64 8, ptr %16) #15
  call void @llvm.lifetime.start.p0(i64 8, ptr %17) #15
  call void @llvm.lifetime.start.p0(i64 4, ptr %18) #15
  %20 = load ptr, ptr %6, align 8, !tbaa !67
  store i64 -1, ptr %20, align 8, !tbaa !24
  %21 = load ptr, ptr %9, align 8, !tbaa !23
  %22 = call ptr @iconv_open(ptr noundef @_generic_superset_name, ptr noundef %21)
  store ptr %22, ptr %12, align 8, !tbaa !30
  %23 = load ptr, ptr %12, align 8, !tbaa !30
  %24 = icmp eq ptr %23, inttoptr (i64 -1 to ptr)
  br i1 %24, label %25, label %31

25:                                               ; preds = %4
  %26 = call ptr @__errno_location() #16
  %27 = load i32, ptr %26, align 4, !tbaa !4
  %28 = icmp eq i32 %27, 22
  br i1 %28, label %29, label %30

29:                                               ; preds = %25
  store i32 2, ptr %5, align 4
  store i32 1, ptr %19, align 4
  br label %87

30:                                               ; preds = %25
  store i32 1, ptr %5, align 4
  store i32 1, ptr %19, align 4
  br label %87

31:                                               ; preds = %4
  %32 = call ptr @__errno_location() #16
  store i32 0, ptr %32, align 4, !tbaa !4
  store i64 0, ptr %16, align 8, !tbaa !24
  %33 = load i64, ptr %8, align 8, !tbaa !24
  %34 = icmp ugt i64 %33, 0
  %35 = zext i1 %34 to i32
  store i32 %35, ptr %18, align 4, !tbaa !4
  %36 = load ptr, ptr %7, align 8, !tbaa !23
  store ptr %36, ptr %13, align 8, !tbaa !23
  %37 = load i64, ptr %8, align 8, !tbaa !24
  store i64 %37, ptr %14, align 8, !tbaa !24
  store i64 0, ptr %17, align 8, !tbaa !24
  br label %38

38:                                               ; preds = %73, %31
  %39 = load i32, ptr %18, align 4, !tbaa !4
  %40 = icmp ne i32 %39, 0
  br i1 %40, label %41, label %74

41:                                               ; preds = %38
  %42 = getelementptr inbounds [8 x i8], ptr %10, i64 0, i64 0
  store ptr %42, ptr %15, align 8, !tbaa !23
  store i64 8, ptr %16, align 8, !tbaa !24
  %43 = load i64, ptr %14, align 8, !tbaa !24
  %44 = icmp ugt i64 %43, 0
  %45 = zext i1 %44 to i32
  store i32 %45, ptr %18, align 4, !tbaa !4
  %46 = load ptr, ptr %12, align 8, !tbaa !30
  %47 = load i32, ptr %18, align 4, !tbaa !4
  %48 = icmp ne i32 %47, 0
  br i1 %48, label %49, label %50

49:                                               ; preds = %41
  br label %51

50:                                               ; preds = %41
  br label %51

51:                                               ; preds = %50, %49
  %52 = phi ptr [ %13, %49 ], [ null, %50 ]
  %53 = load i32, ptr %18, align 4, !tbaa !4
  %54 = icmp ne i32 %53, 0
  br i1 %54, label %55, label %56

55:                                               ; preds = %51
  br label %57

56:                                               ; preds = %51
  br label %57

57:                                               ; preds = %56, %55
  %58 = phi ptr [ %14, %55 ], [ null, %56 ]
  %59 = call i64 @iconv(ptr noundef %46, ptr noundef %52, ptr noundef %58, ptr noundef %15, ptr noundef %16)
  %60 = load i64, ptr %16, align 8, !tbaa !24
  %61 = icmp eq i64 %60, 8
  br i1 %61, label %62, label %63

62:                                               ; preds = %57
  br label %74

63:                                               ; preds = %57
  %64 = load i64, ptr %16, align 8, !tbaa !24
  %65 = sub i64 8, %64
  %66 = urem i64 %65, 4
  %67 = icmp eq i64 %66, 0
  call void @llvm.assume(i1 %67)
  %68 = load i64, ptr %16, align 8, !tbaa !24
  %69 = sub i64 8, %68
  %70 = udiv i64 %69, 4
  %71 = load i64, ptr %17, align 8, !tbaa !24
  %72 = add i64 %71, %70
  store i64 %72, ptr %17, align 8, !tbaa !24
  br label %73

73:                                               ; preds = %63
  br label %38

74:                                               ; preds = %62, %38
  %75 = call ptr @__errno_location() #16
  %76 = load i32, ptr %75, align 4, !tbaa !4
  switch i32 %76, label %82 [
    i32 22, label %77
    i32 84, label %78
    i32 7, label %79
    i32 0, label %79
  ]

77:                                               ; preds = %74
  store i32 5, ptr %11, align 4, !tbaa !4
  br label %83

78:                                               ; preds = %74
  store i32 4, ptr %11, align 4, !tbaa !4
  br label %83

79:                                               ; preds = %74, %74
  %80 = load i64, ptr %17, align 8, !tbaa !24
  %81 = load ptr, ptr %6, align 8, !tbaa !67
  store i64 %80, ptr %81, align 8, !tbaa !24
  br label %83

82:                                               ; preds = %74
  store i32 6, ptr %11, align 4, !tbaa !4
  br label %83

83:                                               ; preds = %82, %79, %78, %77
  %84 = load ptr, ptr %12, align 8, !tbaa !30
  %85 = call i32 @iconv_close(ptr noundef %84)
  %86 = load i32, ptr %11, align 4, !tbaa !4
  store i32 %86, ptr %5, align 4
  store i32 1, ptr %19, align 4
  br label %87

87:                                               ; preds = %83, %30, %29
  call void @llvm.lifetime.end.p0(i64 4, ptr %18) #15
  call void @llvm.lifetime.end.p0(i64 8, ptr %17) #15
  call void @llvm.lifetime.end.p0(i64 8, ptr %16) #15
  call void @llvm.lifetime.end.p0(i64 8, ptr %15) #15
  call void @llvm.lifetime.end.p0(i64 8, ptr %14) #15
  call void @llvm.lifetime.end.p0(i64 8, ptr %13) #15
  call void @llvm.lifetime.end.p0(i64 8, ptr %12) #15
  call void @llvm.lifetime.end.p0(i64 4, ptr %11) #15
  call void @llvm.lifetime.end.p0(i64 8, ptr %10) #15
  %88 = load i32, ptr %5, align 4
  ret i32 %88
}