; Function Attrs: nounwind uwtable
define internal fastcc range(i32 0, 7) i32 @_php_iconv_strlen(ptr noundef nonnull writeonly captures(none) initializes((0, 8)) %0, ptr noundef %1, i64 noundef %2, ptr noundef %3) unnamed_addr #0 {
  %5 = alloca [8 x i8], align 1
  %6 = alloca ptr, align 8
  %7 = alloca i64, align 8
  %8 = alloca ptr, align 8
  %9 = alloca i64, align 8
  call void @llvm.lifetime.start.p0(i64 8, ptr nonnull %5) #16
  call void @llvm.lifetime.start.p0(i64 8, ptr nonnull %6) #16
  call void @llvm.lifetime.start.p0(i64 8, ptr nonnull %7) #16
  call void @llvm.lifetime.start.p0(i64 8, ptr nonnull %8) #16
  call void @llvm.lifetime.start.p0(i64 8, ptr nonnull %9) #16
  store i64 -1, ptr %0, align 8, !tbaa !14
  %10 = tail call ptr @iconv_open(ptr noundef nonnull @_generic_superset_name, ptr noundef %3) #16
  %11 = icmp eq ptr %10, inttoptr (i64 -1 to ptr)
  %12 = tail call ptr @__errno_location() #18
  br i1 %11, label %13, label %16

13:                                               ; preds = %4
  %14 = load i32, ptr %12, align 4, !tbaa !12
  %15 = icmp eq i32 %14, 22
  %.20 = select i1 %15, i32 2, i32 1
  br label %34

16:                                               ; preds = %4
  store i32 0, ptr %12, align 4, !tbaa !12
  store i64 0, ptr %9, align 8, !tbaa !14
  %.not = icmp eq i64 %2, 0
  store ptr %1, ptr %6, align 8, !tbaa !7
  store i64 %2, ptr %7, align 8, !tbaa !14
  br i1 %.not, label %._crit_edge.thread, label %.lr.ph.preheader

.lr.ph.preheader:                                 ; preds = %16
  store ptr %5, ptr %8, align 8, !tbaa !7
  store i64 8, ptr %9, align 8, !tbaa !14
  %17 = call i64 @iconv(ptr noundef %10, ptr noundef nonnull %6, ptr noundef nonnull %7, ptr noundef nonnull %8, ptr noundef nonnull %9) #16
  %18 = load i64, ptr %9, align 8, !tbaa !14
  %19 = icmp eq i64 %18, 8
  br i1 %19, label %._crit_edge, label %.lr.ph29

.lr.phthread-pre-split:                           ; preds = %.lr.ph29
  %.pr = load i64, ptr %7, align 8, !tbaa !14
  store ptr %5, ptr %8, align 8, !tbaa !7
  store i64 8, ptr %9, align 8, !tbaa !14
  %.not24 = icmp eq i64 %.pr, 0
  %. = select i1 %.not24, ptr null, ptr %6
  %20 = select i1 %.not24, ptr null, ptr %7
  %21 = call i64 @iconv(ptr noundef %10, ptr noundef %., ptr noundef %20, ptr noundef nonnull %8, ptr noundef nonnull %9) #16
  %22 = load i64, ptr %9, align 8, !tbaa !14
  %23 = icmp eq i64 %22, 8
  br i1 %23, label %._crit_edge, label %.lr.ph29

.lr.ph29:                                         ; preds = %.lr.ph.preheader, %.lr.phthread-pre-split
  %24 = phi i64 [ %22, %.lr.phthread-pre-split ], [ %18, %.lr.ph.preheader ]
  %.not2428 = phi i1 [ %.not24, %.lr.phthread-pre-split ], [ false, %.lr.ph.preheader ]
  %.0152127 = phi i64 [ %29, %.lr.phthread-pre-split ], [ 0, %.lr.ph.preheader ]
  %25 = sub i64 8, %24
  %26 = and i64 %25, 3
  %27 = icmp eq i64 %26, 0
  call void @llvm.assume(i1 %27)
  %28 = lshr exact i64 %25, 2
  %29 = add i64 %28, %.0152127
  br i1 %.not2428, label %._crit_edge, label %.lr.phthread-pre-split

._crit_edge:                                      ; preds = %.lr.phthread-pre-split, %.lr.ph29, %.lr.ph.preheader
  %.015.lcssa.ph = phi i64 [ 0, %.lr.ph.preheader ], [ %29, %.lr.ph29 ], [ %29, %.lr.phthread-pre-split ]
  %.pre = load i32, ptr %12, align 4, !tbaa !12
  switch i32 %.pre, label %31 [
    i32 22, label %32
    i32 84, label %30
    i32 7, label %._crit_edge.thread
    i32 0, label %._crit_edge.thread
  ]

30:                                               ; preds = %._crit_edge
  br label %32

._crit_edge.thread:                               ; preds = %16, %._crit_edge, %._crit_edge
  %.015.lcssa26 = phi i64 [ %.015.lcssa.ph, %._crit_edge ], [ %.015.lcssa.ph, %._crit_edge ], [ 0, %16 ]
  store i64 %.015.lcssa26, ptr %0, align 8, !tbaa !14
  br label %32

31:                                               ; preds = %._crit_edge
  br label %32

32:                                               ; preds = %._crit_edge, %31, %._crit_edge.thread, %30
  %.017 = phi i32 [ 6, %31 ], [ 0, %._crit_edge.thread ], [ 4, %30 ], [ 5, %._crit_edge ]
  %33 = call i32 @iconv_close(ptr noundef %10) #16
  br label %34

34:                                               ; preds = %13, %32
  %.016 = phi i32 [ %.017, %32 ], [ %.20, %13 ]
  call void @llvm.lifetime.end.p0(i64 8, ptr nonnull %9) #16
  call void @llvm.lifetime.end.p0(i64 8, ptr nonnull %8) #16
  call void @llvm.lifetime.end.p0(i64 8, ptr nonnull %7) #16
  call void @llvm.lifetime.end.p0(i64 8, ptr nonnull %6) #16
  call void @llvm.lifetime.end.p0(i64 8, ptr nonnull %5) #16
  ret i32 %.016
}